target datalayout = "e-m:e-p270:32:32-p271:32:32-p272:64:64-i64:64-i128:128-f80:128-n8:16:32:64-S128"
target triple = "x86_64-unknown-linux-gnu"

@target_brk = internal global i64 0, align 8
@initial_target_brk = internal global i64 0, align 8

; Function Attrs: nounwind sspstrong uwtable
define dso_local i64 @do_brk(i64 noundef %brk_val) #0 {
entry:
  %retval = alloca i64, align 8
  %brk_val.addr = alloca i64, align 8
  %mapped_addr = alloca i64, align 8
  %new_brk = alloca i64, align 8
  %old_brk = alloca i64, align 8
  store i64 %brk_val, ptr %brk_val.addr, align 8
  %0 = load i64, ptr %brk_val.addr, align 8
  %1 = load i64, ptr @initial_target_brk, align 8
  %cmp = icmp ult i64 %0, %1
  br i1 %cmp, label %if.then, label %if.end

if.then:                                          ; preds = %entry
  %2 = load i64, ptr @target_brk, align 8
  store i64 %2, ptr %retval, align 8
  br label %return

if.end:                                           ; preds = %entry
  %3 = load i64, ptr %brk_val.addr, align 8
  %add = add i64 %3, 4096
  %sub = sub i64 %add, 1
  %and = and i64 %sub, -4096
  store i64 %and, ptr %new_brk, align 8
  %4 = load i64, ptr @target_brk, align 8
  %add1 = add i64 %4, 4096
  %sub2 = sub i64 %add1, 1
  %and3 = and i64 %sub2, -4096
  store i64 %and3, ptr %old_brk, align 8
  %5 = load i64, ptr %new_brk, align 8
  %6 = load i64, ptr %old_brk, align 8
  %cmp4 = icmp eq i64 %5, %6
  br i1 %cmp4, label %if.then5, label %if.end6

if.then5:                                         ; preds = %if.end
  %7 = load i64, ptr %brk_val.addr, align 8
  store i64 %7, ptr @target_brk, align 8
  %8 = load i64, ptr @target_brk, align 8
  store i64 %8, ptr %retval, align 8
  br label %return

if.end6:                                          ; preds = %if.end
  %9 = load i64, ptr %new_brk, align 8
  %10 = load i64, ptr %old_brk, align 8
  %cmp7 = icmp ult i64 %9, %10
  br i1 %cmp7, label %if.then8, label %if.end10

if.then8:                                         ; preds = %if.end6
  %11 = load i64, ptr %new_brk, align 8
  %12 = load i64, ptr %old_brk, align 8
  %13 = load i64, ptr %new_brk, align 8
  %sub9 = sub i64 %12, %13
  %call = call i32 @target_munmap(i64 noundef %11, i64 noundef %sub9)
  %14 = load i64, ptr %brk_val.addr, align 8
  store i64 %14, ptr @target_brk, align 8
  %15 = load i64, ptr @target_brk, align 8
  store i64 %15, ptr %retval, align 8
  br label %return

if.end10:                                         ; preds = %if.end6
  %16 = load i64, ptr %old_brk, align 8
  %17 = load i64, ptr %new_brk, align 8
  %18 = load i64, ptr %old_brk, align 8
  %sub11 = sub i64 %17, %18
  %call12 = call i64 @target_mmap(i64 noundef %16, i64 noundef %sub11, i32 noundef 3, i32 noundef 1048610, i32 noundef -1, i64 noundef 0)
  store i64 %call12, ptr %mapped_addr, align 8
  %19 = load i64, ptr %mapped_addr, align 8
  %20 = load i64, ptr %old_brk, align 8
  %cmp13 = icmp eq i64 %19, %20
  br i1 %cmp13, label %if.then14, label %if.end15

if.then14:                                        ; preds = %if.end10
  %21 = load i64, ptr %brk_val.addr, align 8
  store i64 %21, ptr @target_brk, align 8
  %22 = load i64, ptr @target_brk, align 8
  store i64 %22, ptr %retval, align 8
  br label %return

if.end15:                                         ; preds = %if.end10
  %23 = load i64, ptr @target_brk, align 8
  store i64 %23, ptr %retval, align 8
  br label %return

return:                                           ; preds = %if.end15, %if.then14, %if.then8, %if.then5, %if.then
  %24 = load i64, ptr %retval, align 8
  ret i64 %24
}