; Function Attrs: nounwind sspstrong uwtable
define dso_local i64 @do_brk(i64 noundef %brk_val) local_unnamed_addr #2 {
entry:
  %0 = load i64, ptr @initial_target_brk, align 8
  %cmp = icmp ult i64 %brk_val, %0
  br i1 %cmp, label %if.then, label %if.end

if.then:                                          ; preds = %entry
  %1 = load i64, ptr @target_brk, align 8
  br label %return

if.end:                                           ; preds = %entry
  %sub = add i64 %brk_val, 4095
  %and = and i64 %sub, -4096
  %2 = load i64, ptr @target_brk, align 8
  %sub2 = add i64 %2, 4095
  %and3 = and i64 %sub2, -4096
  %cmp4 = icmp eq i64 %and, %and3
  br i1 %cmp4, label %if.then5, label %if.end6

if.then5:                                         ; preds = %if.end
  store i64 %brk_val, ptr @target_brk, align 8
  br label %return

if.end6:                                          ; preds = %if.end
  %cmp7 = icmp ult i64 %and, %and3
  br i1 %cmp7, label %if.then8, label %if.end10

if.then8:                                         ; preds = %if.end6
  %sub9 = sub nuw i64 %and3, %and
  %call = tail call i32 @target_munmap(i64 noundef %and, i64 noundef %sub9) #27
  store i64 %brk_val, ptr @target_brk, align 8
  br label %return

if.end10:                                         ; preds = %if.end6
  %sub11 = sub nuw i64 %and, %and3
  %call12 = tail call i64 @target_mmap(i64 noundef %and3, i64 noundef %sub11, i32 noundef 3, i32 noundef 1048610, i32 noundef -1, i64 noundef 0) #27
  %cmp13 = icmp eq i64 %call12, %and3
  br i1 %cmp13, label %if.then14, label %if.end15

if.then14:                                        ; preds = %if.end10
  store i64 %brk_val, ptr @target_brk, align 8
  br label %return

if.end15:                                         ; preds = %if.end10
  %3 = load i64, ptr @target_brk, align 8
  br label %return

return:                                           ; preds = %if.end15, %if.then14, %if.then8, %if.then5, %if.then
  %retval.0 = phi i64 [ %1, %if.then ], [ %brk_val, %if.then5 ], [ %brk_val, %if.then8 ], [ %brk_val, %if.then14 ], [ %3, %if.end15 ]
  ret i64 %retval.0
}